target datalayout = "e-m:e-p270:32:32-p271:32:32-p272:64:64-i64:64-i128:128-f80:128-n8:16:32:64-S128"
target triple = "x86_64-pc-linux-gnu"

%"class.absl::debugging_internal::ElfMemImage::SymbolIterator" = type { %"struct.absl::debugging_internal::ElfMemImage::SymbolInfo", i32, ptr }
%"struct.absl::debugging_internal::ElfMemImage::SymbolInfo" = type { ptr, ptr, ptr, ptr }

; Function Attrs: mustprogress nounwind uwtable
define dso_local noundef zeroext i1 @_ZNK4absl18debugging_internal11ElfMemImage14SymbolIteratoreqERKS2_(ptr noundef nonnull align 8 dereferenceable(48) %0, ptr noundef nonnull align 8 dereferenceable(48) %1) #4 align 2 {
  %3 = alloca ptr, align 8
  %4 = alloca ptr, align 8
  store ptr %0, ptr %3, align 8, !tbaa !59
  store ptr %1, ptr %4, align 8, !tbaa !59
  %5 = load ptr, ptr %3, align 8
  %6 = getelementptr inbounds nuw %"class.absl::debugging_internal::ElfMemImage::SymbolIterator", ptr %5, i32 0, i32 2
  %7 = load ptr, ptr %6, align 8, !tbaa !66
  %8 = load ptr, ptr %4, align 8, !tbaa !59
  %9 = getelementptr inbounds nuw %"class.absl::debugging_internal::ElfMemImage::SymbolIterator", ptr %8, i32 0, i32 2
  %10 = load ptr, ptr %9, align 8, !tbaa !66
  %11 = icmp eq ptr %7, %10
  br i1 %11, label %12, label %19

12:                                               ; preds = %2
  %13 = getelementptr inbounds nuw %"class.absl::debugging_internal::ElfMemImage::SymbolIterator", ptr %5, i32 0, i32 1
  %14 = load i32, ptr %13, align 8, !tbaa !64
  %15 = load ptr, ptr %4, align 8, !tbaa !59
  %16 = getelementptr inbounds nuw %"class.absl::debugging_internal::ElfMemImage::SymbolIterator", ptr %15, i32 0, i32 1
  %17 = load i32, ptr %16, align 8, !tbaa !64
  %18 = icmp eq i32 %14, %17
  br label %19

19:                                               ; preds = %12, %2
  %20 = phi i1 [ false, %2 ], [ %18, %12 ]
  ret i1 %20
}