; Function Attrs: mustprogress nofree norecurse nosync nounwind willreturn memory(argmem: read) uwtable
define dso_local noundef zeroext i1 @_ZNK4absl18debugging_internal11ElfMemImage14SymbolIteratoreqERKS2_(ptr noundef nonnull readonly align 8 captures(none) dereferenceable(48) %0, ptr noundef nonnull readonly align 8 captures(none) dereferenceable(48) %1) local_unnamed_addr #4 align 2 {
  %3 = getelementptr inbounds nuw i8, ptr %0, i64 40
  %4 = load ptr, ptr %3, align 8, !tbaa !53
  %5 = getelementptr inbounds nuw i8, ptr %1, i64 40
  %6 = load ptr, ptr %5, align 8, !tbaa !53
  %7 = icmp eq ptr %4, %6
  %8 = getelementptr inbounds nuw i8, ptr %0, i64 32
  %9 = load i32, ptr %8, align 8
  %10 = getelementptr inbounds nuw i8, ptr %1, i64 32
  %11 = load i32, ptr %10, align 8
  %12 = icmp eq i32 %9, %11
  %13 = select i1 %7, i1 %12, i1 false
  ret i1 %13
}